; Function Attrs: mustprogress nofree norecurse nosync nounwind willreturn memory(argmem: read) uwtable
define noundef i32 @_ZNK8proxygen11HeaderTable4tailEv(ptr nocapture noundef nonnull readonly align 8 dereferenceable(80) %this) local_unnamed_addr #7 align 2 personality ptr @__gxx_personality_v0 {
entry:
  %head_ = getelementptr inbounds i8, ptr %this, i64 44
  %0 = load i32, ptr %head_, align 4
  %conv = zext i32 %0 to i64
  %table_.i = getelementptr inbounds i8, ptr %this, i64 16
  %_M_finish.i.i = getelementptr inbounds i8, ptr %this, i64 24
  %1 = load ptr, ptr %_M_finish.i.i, align 8
  %2 = load ptr, ptr %table_.i, align 8
  %sub.ptr.lhs.cast.i.i = ptrtoint ptr %1 to i64
  %sub.ptr.rhs.cast.i.i = ptrtoint ptr %2 to i64
  %sub.ptr.sub.i.i = sub i64 %sub.ptr.lhs.cast.i.i, %sub.ptr.rhs.cast.i.i
  %sub.ptr.div.i.i = ashr exact i64 %sub.ptr.sub.i.i, 5
  %size_14 = getelementptr inbounds i8, ptr %this, i64 40
  %3 = load i32, ptr %size_14, align 8
  %conv15 = zext i32 %3 to i64
  %add = add nuw nsw i64 %conv, 1
  %sub = sub nsw i64 %add, %conv15
  %add16 = add nsw i64 %sub, %sub.ptr.div.i.i
  %rem = urem i64 %add16, %sub.ptr.div.i.i
  %conv18 = trunc i64 %rem to i32
  ret i32 %conv18
}